; Function Attrs: nounwind uwtable
define i64 @evbuffer_copyout_from(ptr noundef readonly captures(none) %0, ptr noundef readonly captures(address_is_null) %1, ptr noundef writeonly captures(none) %2, i64 noundef %3) local_unnamed_addr #1 {
  %5 = getelementptr inbounds nuw i8, ptr %0, i64 56
  %6 = load ptr, ptr %5, align 8
  %.not = icmp eq ptr %6, null
  br i1 %.not, label %10, label %7

7:                                                ; preds = %4
  %8 = load ptr, ptr getelementptr inbounds nuw (i8, ptr @evthread_lock_fns_, i64 24), align 8
  %9 = tail call i32 %8(i32 noundef 0, ptr noundef nonnull %6) #16
  br label %10

10:                                               ; preds = %7, %4
  %.not59 = icmp eq ptr %1, null
  br i1 %.not59, label %24, label %11

11:                                               ; preds = %10
  %12 = load i64, ptr %1, align 8
  %13 = sub nsw i64 9223372036854775807, %12
  %14 = icmp ugt i64 %3, %13
  br i1 %14, label %.critedge65, label %15

15:                                               ; preds = %11
  %16 = getelementptr inbounds nuw i8, ptr %1, i64 8
  %17 = getelementptr inbounds nuw i8, ptr %1, i64 16
  %18 = load i64, ptr %17, align 8
  %19 = add i64 %12, %3
  %20 = getelementptr inbounds nuw i8, ptr %0, i64 24
  %21 = load i64, ptr %20, align 8
  %22 = icmp ugt i64 %19, %21
  %23 = sub i64 %21, %12
  %spec.select = select i1 %22, i64 %23, i64 %3
  br label %27

24:                                               ; preds = %10
  %25 = getelementptr inbounds nuw i8, ptr %0, i64 24
  %26 = load i64, ptr %25, align 8
  %spec.select64 = tail call i64 @llvm.umin.i64(i64 %3, i64 %26)
  br label %27

27:                                               ; preds = %24, %15
  %.048.in = phi ptr [ %16, %15 ], [ %0, %24 ]
  %.045 = phi i64 [ %18, %15 ], [ 0, %24 ]
  %.0 = phi i64 [ %spec.select, %15 ], [ %spec.select64, %24 ]
  %28 = icmp eq i64 %.0, 0
  br i1 %28, label %.critedge65, label %29

29:                                               ; preds = %27
  %30 = getelementptr inbounds nuw i8, ptr %0, i64 64
  %31 = load i8, ptr %30, align 8
  %32 = and i8 %31, 2
  %.not60 = icmp eq i8 %32, 0
  br i1 %.not60, label %.preheader, label %.critedge65

.preheader:                                       ; preds = %29, %42
  %.14974.in = phi ptr [ %.14974, %42 ], [ %.048.in, %29 ]
  %.173 = phi i64 [ %44, %42 ], [ %.0, %29 ]
  %.14672 = phi i64 [ 0, %42 ], [ %.045, %29 ]
  %.05071 = phi ptr [ %43, %42 ], [ %2, %29 ]
  %.14974 = load ptr, ptr %.14974.in, align 8
  %33 = getelementptr inbounds nuw i8, ptr %.14974, i64 24
  %34 = load i64, ptr %33, align 8
  %35 = sub i64 %34, %.14672
  %.not62 = icmp ult i64 %.173, %35
  %36 = getelementptr inbounds nuw i8, ptr %.14974, i64 40
  %37 = load ptr, ptr %36, align 8
  %38 = getelementptr inbounds nuw i8, ptr %.14974, i64 16
  %39 = load i64, ptr %38, align 8
  %40 = getelementptr inbounds i8, ptr %37, i64 %39
  %41 = getelementptr inbounds nuw i8, ptr %40, i64 %.14672
  br i1 %.not62, label %.critedge, label %42

42:                                               ; preds = %.preheader
  tail call void @llvm.memcpy.p0.p0.i64(ptr align 1 %.05071, ptr align 1 %41, i64 %35, i1 false)
  %43 = getelementptr inbounds nuw i8, ptr %.05071, i64 %35
  %44 = sub nuw i64 %.173, %35
  %.not61 = icmp eq i64 %44, 0
  br i1 %.not61, label %.critedge65, label %.preheader, !llvm.loop !22

.critedge:                                        ; preds = %.preheader
  tail call void @llvm.memcpy.p0.p0.i64(ptr align 1 %.05071, ptr align 1 %41, i64 %.173, i1 false)
  br label %.critedge65

.critedge65:                                      ; preds = %42, %.critedge, %29, %11, %27
  %.047 = phi i64 [ 0, %27 ], [ -1, %11 ], [ -1, %29 ], [ %.0, %.critedge ], [ %.0, %42 ]
  %45 = load ptr, ptr %5, align 8
  %.not63 = icmp eq ptr %45, null
  br i1 %.not63, label %49, label %46

46:                                               ; preds = %.critedge65
  %47 = load ptr, ptr getelementptr inbounds nuw (i8, ptr @evthread_lock_fns_, i64 32), align 8
  %48 = tail call i32 %47(i32 noundef 0, ptr noundef nonnull %45) #16
  br label %49

49:                                               ; preds = %46, %.critedge65
  ret i64 %.047
}